; Function Attrs: mustprogress uwtable
define void @_ZN3gmx8internal18BasicHistogramImpl4initERKNS_25AnalysisHistogramSettingsE(ptr nocapture noundef nonnull align 8 dereferenceable(56) %0, ptr nocapture noundef nonnull readonly align 4 dereferenceable(21) %1) local_unnamed_addr #3 align 2 {
  %3 = getelementptr inbounds i8, ptr %0, i64 16
  tail call void @llvm.memcpy.p0.p0.i64(ptr noundef nonnull align 8 dereferenceable(21) %3, ptr noundef nonnull align 4 dereferenceable(21) %1, i64 21, i1 false)
  %4 = getelementptr inbounds i8, ptr %0, i64 40
  %5 = load ptr, ptr %4, align 8
  %6 = getelementptr inbounds i8, ptr %5, i64 96
  tail call void @llvm.memcpy.p0.p0.i64(ptr noundef nonnull align 8 dereferenceable(21) %6, ptr noundef nonnull align 4 dereferenceable(21) %1, i64 21, i1 false)
  %7 = getelementptr inbounds i8, ptr %1, i64 16
  %8 = load i32, ptr %7, align 4
  tail call void @_ZN3gmx25AbstractAnalysisArrayData11setRowCountEi(ptr noundef nonnull align 8 dereferenceable(94) %5, i32 noundef %8)
  %9 = load float, ptr %1, align 4
  %10 = fpext float %9 to double
  %11 = getelementptr inbounds i8, ptr %1, i64 8
  %12 = load float, ptr %11, align 4
  %13 = fpext float %12 to double
  %14 = tail call double @llvm.fmuladd.f64(double %13, double 5.000000e-01, double %10)
  %15 = fptrunc double %14 to float
  tail call void @_ZN3gmx25AbstractAnalysisArrayData8setXAxisEff(ptr noundef nonnull align 8 dereferenceable(94) %5, float noundef %15, float noundef %12)
  ret void
}